Certificate:
    Data:
        Version: 3 (0x2)
        Serial Number: 4 (0x4)
        Signature Algorithm: md5WithRSAEncryption
        Issuer: C=US, ST=Massachusetts, L=Worcester, O=cs557, O=Nathan Longnecker, CN=nwlCA
        Validity
            Not Before: Dec  6 04:47:35 2014 GMT
            Not After : Dec  6 04:47:35 2015 GMT
        Subject: C=US, ST=Massachusetts, O=cs557, O=Nathan Longnecker, CN=Clark
        Subject Public Key Info:
            Public Key Algorithm: rsaEncryption
            RSA Public Key: (2048 bit)
                Modulus (2048 bit):
                    00:ae:d5:46:ca:f1:95:a6:f6:71:d2:27:38:35:f5:
                    b5:8d:cb:ce:36:b5:14:55:ee:aa:08:d4:e5:95:c2:
                    7e:ce:b5:61:69:84:09:ab:c6:62:ec:ca:cf:e0:08:
                    af:49:87:ee:71:b4:b0:37:d3:32:cc:0d:a9:35:5a:
                    ab:24:31:bd:c0:9f:af:24:9c:6b:13:32:dc:fb:c1:
                    11:9f:37:fa:10:27:d1:08:9d:67:33:1e:96:e2:e5:
                    a2:f9:c2:d4:5b:f6:27:97:d1:3c:cf:4d:46:01:09:
                    b2:10:04:a9:8e:36:03:aa:a3:09:c9:3a:85:1e:2e:
                    af:d1:97:1d:22:8e:13:a1:f0:d3:01:74:93:f2:4d:
                    44:eb:d9:07:a0:f9:37:64:94:49:92:34:0c:45:f9:
                    2c:07:36:91:8e:96:56:02:75:b6:1c:b6:a2:2c:9f:
                    c7:fb:f0:d2:a9:e5:97:2f:21:78:33:50:30:8b:81:
                    66:e4:e7:1f:74:be:34:7c:56:5b:34:24:31:39:8d:
                    37:cd:59:45:a0:e8:6c:57:25:d4:9a:24:c7:28:c8:
                    93:0c:39:c0:52:4b:ee:1c:5a:a3:96:1e:b4:37:1a:
                    07:da:3f:b2:2b:5d:b1:71:a8:10:51:89:bb:cf:17:
                    5a:3c:a9:81:7c:49:b2:43:c8:fe:ed:61:22:89:e9:
                    3d:b3
                Exponent: 65537 (0x10001)
        X509v3 extensions:
            X509v3 Basic Constraints: 
                CA:FALSE
            Netscape Comment: 
                OpenSSL Generated Certificate
            X509v3 Subject Key Identifier: 
                02:B3:44:DD:03:32:BE:73:86:3D:F2:57:96:1E:AC:ED:E4:85:78:14
            X509v3 Authority Key Identifier: 
                keyid:CD:08:F0:23:C2:EB:4A:1C:50:93:5E:BD:0B:BC:FB:8F:C9:6B:8F:50

    Signature Algorithm: md5WithRSAEncryption
        b1:6e:c5:ca:fa:60:8f:43:ec:fe:e7:c3:3f:67:2d:53:0d:fb:
        83:23:92:d0:7a:34:29:63:81:42:6a:5c:71:46:03:6b:9b:6e:
        12:e4:8e:a4:68:24:35:4d:bb:35:87:b4:d7:f2:22:26:4f:45:
        ee:8b:b8:3a:da:45:ea:e6:f7:a3:f5:2d:aa:80:0a:18:fd:4f:
        7a:9c:fb:73:eb:5a:c1:62:24:b7:68:6d:38:02:1d:02:2d:56:
        6a:76:3d:f6:8d:68:2e:60:27:12:be:55:c4:99:97:e4:2e:21:
        e4:fa:bd:e5:98:5f:a6:e2:49:8a:4c:dc:71:f4:6e:02:57:c2:
        65:88:a1:2c:8f:6a:a5:62:77:d1:75:3a:10:cf:3d:ac:0f:0f:
        5d:97:5c:cf:08:8a:5b:a3:e8:c6:62:cf:1a:20:23:56:1d:94:
        b8:6f:c7:16:02:08:08:c5:6b:16:59:9b:dd:81:c5:de:a8:2e:
        b0:e9:40:08:8a:3f:04:ea:e2:62:81:ff:ab:9d:44:93:88:f8:
        8e:75:94:80:20:52:6a:e4:cf:db:61:f8:56:92:87:4e:57:2f:
        96:c2:79:d3:3b:42:a9:b1:1f:75:e1:7e:6a:99:f6:d4:05:e7:
        6c:d4:45:3d:85:52:b0:1a:8d:ce:88:fd:d4:65:74:b7:63:2a:
        ab:e8:37:c9
-----BEGIN CERTIFICATE-----
MIIDzDCCArSgAwIBAgIBBDANBgkqhkiG9w0BAQQFADB1MQswCQYDVQQGEwJVUzEW
MBQGA1UECAwNTWFzc2FjaHVzZXR0czESMBAGA1UEBwwJV29yY2VzdGVyMQ4wDAYD
VQQKDAVjczU1NzEaMBgGA1UECgwRTmF0aGFuIExvbmduZWNrZXIxDjAMBgNVBAMM
BW53bENBMB4XDTE0MTIwNjA0NDczNVoXDTE1MTIwNjA0NDczNVowYTELMAkGA1UE
BhMCVVMxFjAUBgNVBAgMDU1hc3NhY2h1c2V0dHMxDjAMBgNVBAoMBWNzNTU3MRow
GAYDVQQKDBFOYXRoYW4gTG9uZ25lY2tlcjEOMAwGA1UEAwwFQ2xhcmswggEiMA0G
CSqGSIb3DQEBAQUAA4IBDwAwggEKAoIBAQCu1UbK8ZWm9nHSJzg19bWNy842tRRV
7qoI1OWVwn7OtWFphAmrxmLsys/gCK9Jh+5xtLA30zLMDak1WqskMb3An68knGsT
Mtz7wRGfN/oQJ9EInWczHpbi5aL5wtRb9ieX0TzPTUYBCbIQBKmONgOqownJOoUe
Lq/Rlx0ijhOh8NMBdJPyTUTr2Qeg+TdklEmSNAxF+SwHNpGOllYCdbYctqIsn8f7
8NKp5ZcvIXgzUDCLgWbk5x90vjR8Vls0JDE5jTfNWUWg6GxXJdSaJMcoyJMMOcBS
S+4cWqOWHrQ3GgfaP7IrXbFxqBBRibvPF1o8qYF8SbJDyP7tYSKJ6T2zAgMBAAGj
ezB5MAkGA1UdEwQCMAAwLAYJYIZIAYb4QgENBB8WHU9wZW5TU0wgR2VuZXJhdGVk
IENlcnRpZmljYXRlMB0GA1UdDgQWBBQCs0TdAzK+c4Y98leWHqzt5IV4FDAfBgNV
HSMEGDAWgBTNCPAjwutKHFCTXr0LvPuPyWuPUDANBgkqhkiG9w0BAQQFAAOCAQEA
sW7Fyvpgj0Ps/ufDP2ctUw37gyOS0Ho0KWOBQmpccUYDa5tuEuSOpGgkNU27NYe0
1/IiJk9F7ou4OtpF6ub3o/UtqoAKGP1Pepz7c+tawWIkt2htOAIdAi1WanY99o1o
LmAnEr5VxJmX5C4h5Pq95ZhfpuJJikzccfRuAlfCZYihLI9qpWJ30XU6EM89rA8P
XZdczwiKW6PoxmLPGiAjVh2UuG/HFgIICMVrFlmb3YHF3qgusOlACIo/BOriYoH/
q51Ek4j4jnWUgCBSauTP22H4VpKHTlcvlsJ50ztCqbEfdeF+apn21AXnbNRFPYVS
sBqNzoj91GV0t2Mqq+g3yQ==
-----END CERTIFICATE-----
