Certificate:
    Data:
        Version: 3 (0x2)
        Serial Number: 5 (0x5)
        Signature Algorithm: md5WithRSAEncryption
        Issuer: C=US, ST=Massachusetts, L=Worcester, O=cs557, O=Nathan Longnecker, CN=nwlCA
        Validity
            Not Before: Dec  6 04:48:33 2014 GMT
            Not After : Dec  6 04:48:33 2015 GMT
        Subject: C=US, ST=Massachusetts, O=cs557, O=Nathan Longnecker, CN=ClarkACM
        Subject Public Key Info:
            Public Key Algorithm: rsaEncryption
            RSA Public Key: (2048 bit)
                Modulus (2048 bit):
                    00:ea:ec:4d:85:7a:3e:a0:92:46:62:e8:50:8b:d5:
                    6a:46:b1:69:b9:78:a8:87:2e:91:02:1c:04:ac:47:
                    7c:c7:9f:4d:0d:bd:d5:85:6e:bc:98:12:12:f8:d8:
                    c4:99:45:1b:8a:74:9c:7b:08:93:6e:ed:9c:ac:5e:
                    d7:5d:53:6f:9d:3e:89:f6:29:8a:ee:31:93:6c:76:
                    25:e0:37:0e:04:4e:f3:47:56:f4:cc:9d:aa:97:55:
                    d8:78:11:1c:d4:23:62:81:4e:5c:3c:07:28:82:0e:
                    e4:fa:b0:08:35:39:7b:72:9f:49:5f:98:83:8f:f8:
                    a4:e9:10:14:c6:54:42:d2:cc:86:72:f7:0d:19:90:
                    6b:07:2c:a7:16:f8:f3:44:d7:5d:ea:17:95:94:08:
                    ed:fa:c7:08:e6:7d:b6:53:68:06:47:d0:4f:1a:66:
                    51:37:ed:3c:2b:71:64:67:b8:ad:b6:5a:2b:a3:97:
                    86:b6:77:c0:ac:3e:e3:b5:96:8b:8a:9c:a3:24:dc:
                    5e:c4:05:6f:8e:e8:8a:7c:c7:13:3c:e8:29:1b:5e:
                    c1:41:91:52:f0:43:db:73:32:4f:41:d2:81:06:e3:
                    53:a9:fa:3f:31:33:50:ce:7b:64:79:cc:2b:42:78:
                    e6:9b:a1:a1:fc:c4:92:80:60:1f:e2:28:82:2c:0b:
                    16:3b
                Exponent: 65537 (0x10001)
        X509v3 extensions:
            X509v3 Basic Constraints: 
                CA:FALSE
            Netscape Comment: 
                OpenSSL Generated Certificate
            X509v3 Subject Key Identifier: 
                03:9A:46:80:D1:96:13:87:34:47:3E:84:69:5C:0F:F8:25:7B:80:CA
            X509v3 Authority Key Identifier: 
                keyid:CD:08:F0:23:C2:EB:4A:1C:50:93:5E:BD:0B:BC:FB:8F:C9:6B:8F:50

    Signature Algorithm: md5WithRSAEncryption
        76:7e:82:4e:5d:16:34:ec:8e:77:dd:d4:c0:2c:65:15:1a:f5:
        44:9d:29:8f:07:4c:86:ac:d3:91:ca:2a:f6:01:a9:59:46:12:
        92:5a:01:92:f3:b8:32:de:f3:91:3e:3b:c8:73:4d:b6:e4:b1:
        ac:38:34:ce:eb:f8:0c:88:68:1a:33:af:eb:7e:0b:2f:9b:f8:
        bf:23:2c:9e:f4:22:73:b4:7e:e0:5f:d6:c2:87:8f:3d:2c:21:
        cf:27:18:67:a3:c3:b6:35:32:a2:d7:38:87:de:03:86:80:c2:
        7c:58:5a:80:17:aa:40:e0:d7:05:f9:5b:d3:fd:64:bb:07:df:
        08:58:aa:12:a2:1d:48:c8:76:98:82:ed:b4:a8:dc:a6:55:9d:
        0d:db:06:45:30:ea:85:84:67:4b:c0:c3:77:c4:71:9c:6c:0a:
        c3:8e:ec:67:20:fd:a9:e8:d1:39:26:7a:d2:11:0f:35:02:ec:
        91:f8:d0:7b:82:d0:de:15:25:ce:60:82:ee:fb:1b:65:c9:11:
        81:5d:6e:5e:3e:36:0f:d7:8c:45:6f:1c:47:60:b7:08:e6:a9:
        d7:b8:94:15:06:88:de:d6:b1:07:2c:a4:7f:d3:8f:38:79:19:
        4d:b4:32:89:9f:ac:31:8f:03:89:c9:b3:48:7f:ee:7b:44:fe:
        d4:94:f3:92
-----BEGIN CERTIFICATE-----
MIIDzzCCAregAwIBAgIBBTANBgkqhkiG9w0BAQQFADB1MQswCQYDVQQGEwJVUzEW
MBQGA1UECAwNTWFzc2FjaHVzZXR0czESMBAGA1UEBwwJV29yY2VzdGVyMQ4wDAYD
VQQKDAVjczU1NzEaMBgGA1UECgwRTmF0aGFuIExvbmduZWNrZXIxDjAMBgNVBAMM
BW53bENBMB4XDTE0MTIwNjA0NDgzM1oXDTE1MTIwNjA0NDgzM1owZDELMAkGA1UE
BhMCVVMxFjAUBgNVBAgMDU1hc3NhY2h1c2V0dHMxDjAMBgNVBAoMBWNzNTU3MRow
GAYDVQQKDBFOYXRoYW4gTG9uZ25lY2tlcjERMA8GA1UEAwwIQ2xhcmtBQ00wggEi
MA0GCSqGSIb3DQEBAQUAA4IBDwAwggEKAoIBAQDq7E2Fej6gkkZi6FCL1WpGsWm5
eKiHLpECHASsR3zHn00NvdWFbryYEhL42MSZRRuKdJx7CJNu7ZysXtddU2+dPon2
KYruMZNsdiXgNw4ETvNHVvTMnaqXVdh4ERzUI2KBTlw8ByiCDuT6sAg1OXtyn0lf
mIOP+KTpEBTGVELSzIZy9w0ZkGsHLKcW+PNE113qF5WUCO36xwjmfbZTaAZH0E8a
ZlE37TwrcWRnuK22Wiujl4a2d8CsPuO1louKnKMk3F7EBW+O6Ip8xxM86CkbXsFB
kVLwQ9tzMk9B0oEG41Op+j8xM1DOe2R5zCtCeOaboaH8xJKAYB/iKIIsCxY7AgMB
AAGjezB5MAkGA1UdEwQCMAAwLAYJYIZIAYb4QgENBB8WHU9wZW5TU0wgR2VuZXJh
dGVkIENlcnRpZmljYXRlMB0GA1UdDgQWBBQDmkaA0ZYThzRHPoRpXA/4JXuAyjAf
BgNVHSMEGDAWgBTNCPAjwutKHFCTXr0LvPuPyWuPUDANBgkqhkiG9w0BAQQFAAOC
AQEAdn6CTl0WNOyOd93UwCxlFRr1RJ0pjwdMhqzTkcoq9gGpWUYSkloBkvO4Mt7z
kT47yHNNtuSxrDg0zuv4DIhoGjOv634LL5v4vyMsnvQic7R+4F/WwoePPSwhzycY
Z6PDtjUyotc4h94DhoDCfFhagBeqQODXBflb0/1kuwffCFiqEqIdSMh2mILttKjc
plWdDdsGRTDqhYRnS8DDd8RxnGwKw47sZyD9qejROSZ60hEPNQLskfjQe4LQ3hUl
zmCC7vsbZckRgV1uXj42D9eMRW8cR2C3COap17iUFQaI3taxByykf9OPOHkZTbQy
iZ+sMY8DicmzSH/ue0T+1JTzkg==
-----END CERTIFICATE-----
