Certificate:
    Data:
        Version: 3 (0x2)
        Serial Number: 8 (0x8)
        Signature Algorithm: md5WithRSAEncryption
        Issuer: C=US, ST=Massachusetts, L=Worcester, O=cs557, O=Nathan Longnecker, CN=nwlCA
        Validity
            Not Before: Dec  6 04:49:50 2014 GMT
            Not After : Dec  6 04:49:50 2015 GMT
        Subject: C=US, ST=Massachusetts, O=cs557, O=Nathan Longnecker, CN=HolyCrossACM
        Subject Public Key Info:
            Public Key Algorithm: rsaEncryption
            RSA Public Key: (2048 bit)
                Modulus (2048 bit):
                    00:d7:2a:96:f8:7e:aa:c3:f6:0e:93:d1:70:d9:53:
                    bb:30:aa:46:16:cf:bf:b2:c9:12:62:05:0a:7a:32:
                    c2:21:06:d6:21:33:60:30:a4:68:f0:4d:16:cd:9e:
                    25:3d:35:7c:61:f9:31:63:e0:82:aa:39:fa:bc:d9:
                    d8:d6:f9:f2:ac:b8:79:2f:29:c8:dc:f9:35:89:ed:
                    67:2c:aa:48:7d:5f:57:08:66:dc:0f:54:27:41:0e:
                    6c:fc:0a:46:8d:e8:dd:0b:a3:e6:c4:e4:ea:2a:b6:
                    a9:4f:d6:4b:f7:b2:07:25:44:2a:00:e8:68:57:7e:
                    51:99:5b:34:7b:6c:44:f3:fa:27:df:5e:40:ba:d9:
                    78:81:40:e9:8e:34:0e:04:22:0f:5b:64:05:55:69:
                    78:66:5f:da:76:f5:e2:88:ad:66:d9:a6:c2:2f:67:
                    6a:c0:8f:26:55:59:2d:78:17:9c:c4:63:81:16:f9:
                    66:99:93:a8:3f:dc:80:4c:96:45:30:48:89:b0:ef:
                    1a:64:e6:41:2f:14:56:b7:90:10:f4:77:e0:16:3b:
                    12:46:d9:6a:65:a6:77:c6:63:9b:c0:4e:a8:46:37:
                    11:f6:77:59:a8:58:fa:2e:46:26:c4:01:cc:c3:a4:
                    fa:27:7e:c5:8a:c0:03:8c:30:15:6f:fd:e9:e1:ca:
                    b1:3d
                Exponent: 65537 (0x10001)
        X509v3 extensions:
            X509v3 Basic Constraints: 
                CA:FALSE
            Netscape Comment: 
                OpenSSL Generated Certificate
            X509v3 Subject Key Identifier: 
                5D:6A:E7:2F:63:3C:12:C1:99:4A:E2:A9:39:4D:FC:86:58:2D:DA:63
            X509v3 Authority Key Identifier: 
                keyid:CD:08:F0:23:C2:EB:4A:1C:50:93:5E:BD:0B:BC:FB:8F:C9:6B:8F:50

    Signature Algorithm: md5WithRSAEncryption
        6f:7b:cc:85:86:77:8a:13:f9:be:5e:ab:67:39:ca:b1:1c:1e:
        ee:1a:f8:30:1f:5d:d4:48:4c:3c:2f:bb:d2:ce:a1:cd:df:43:
        86:d4:cb:8e:b7:56:b8:5c:16:09:43:9b:fb:26:ed:76:c4:1c:
        66:70:bc:3c:35:5b:43:e8:5a:dc:05:0b:24:81:59:b4:da:85:
        07:83:29:09:f3:b6:9a:de:4f:e3:8d:21:fc:21:f7:ac:12:60:
        ce:99:cf:39:73:00:d7:bf:d7:9b:81:f3:23:a6:8a:94:47:5d:
        8b:dd:2d:54:35:e5:01:e0:61:00:9a:0c:66:8c:01:b7:66:98:
        71:8a:11:45:94:67:c6:c5:2a:ef:95:fb:fe:c0:ac:ae:54:1f:
        94:a3:34:21:06:4d:85:ac:83:81:19:08:65:86:ae:ab:5d:f2:
        0b:2d:43:5d:39:b5:68:ed:8c:1b:98:f9:fe:bb:e8:7a:fe:e0:
        e4:a2:46:9d:e2:46:49:21:c8:0f:b6:fc:91:a3:1b:1e:54:ea:
        8d:ce:1b:6a:85:16:80:69:49:10:02:0b:76:31:a6:ab:ce:de:
        c5:85:db:9f:8f:b5:7c:50:e4:69:e4:3b:64:0a:f7:4f:f1:1c:
        d5:63:24:94:ec:c2:6f:55:0b:aa:ed:b0:a8:7c:80:a2:4e:94:
        3a:13:0a:5f
-----BEGIN CERTIFICATE-----
MIID0zCCArugAwIBAgIBCDANBgkqhkiG9w0BAQQFADB1MQswCQYDVQQGEwJVUzEW
MBQGA1UECAwNTWFzc2FjaHVzZXR0czESMBAGA1UEBwwJV29yY2VzdGVyMQ4wDAYD
VQQKDAVjczU1NzEaMBgGA1UECgwRTmF0aGFuIExvbmduZWNrZXIxDjAMBgNVBAMM
BW53bENBMB4XDTE0MTIwNjA0NDk1MFoXDTE1MTIwNjA0NDk1MFowaDELMAkGA1UE
BhMCVVMxFjAUBgNVBAgMDU1hc3NhY2h1c2V0dHMxDjAMBgNVBAoMBWNzNTU3MRow
GAYDVQQKDBFOYXRoYW4gTG9uZ25lY2tlcjEVMBMGA1UEAwwMSG9seUNyb3NzQUNN
MIIBIjANBgkqhkiG9w0BAQEFAAOCAQ8AMIIBCgKCAQEA1yqW+H6qw/YOk9Fw2VO7
MKpGFs+/sskSYgUKejLCIQbWITNgMKRo8E0WzZ4lPTV8YfkxY+CCqjn6vNnY1vny
rLh5LynI3Pk1ie1nLKpIfV9XCGbcD1QnQQ5s/ApGjejdC6PmxOTqKrapT9ZL97IH
JUQqAOhoV35RmVs0e2xE8/on315Autl4gUDpjjQOBCIPW2QFVWl4Zl/advXiiK1m
2abCL2dqwI8mVVkteBecxGOBFvlmmZOoP9yATJZFMEiJsO8aZOZBLxRWt5AQ9Hfg
FjsSRtlqZaZ3xmObwE6oRjcR9ndZqFj6LkYmxAHMw6T6J37FisADjDAVb/3p4cqx
PQIDAQABo3sweTAJBgNVHRMEAjAAMCwGCWCGSAGG+EIBDQQfFh1PcGVuU1NMIEdl
bmVyYXRlZCBDZXJ0aWZpY2F0ZTAdBgNVHQ4EFgQUXWrnL2M8EsGZSuKpOU38hlgt
2mMwHwYDVR0jBBgwFoAUzQjwI8LrShxQk169C7z7j8lrj1AwDQYJKoZIhvcNAQEE
BQADggEBAG97zIWGd4oT+b5eq2c5yrEcHu4a+DAfXdRITDwvu9LOoc3fQ4bUy463
VrhcFglDm/sm7XbEHGZwvDw1W0PoWtwFCySBWbTahQeDKQnztpreT+ONIfwh96wS
YM6ZzzlzANe/15uB8yOmipRHXYvdLVQ15QHgYQCaDGaMAbdmmHGKEUWUZ8bFKu+V
+/7ArK5UH5SjNCEGTYWsg4EZCGWGrqtd8gstQ105tWjtjBuY+f676Hr+4OSiRp3i
RkkhyA+2/JGjGx5U6o3OG2qFFoBpSRACC3YxpqvO3sWF25+PtXxQ5GnkO2QK90/x
HNVjJJTswm9VC6rtsKh8gKJOlDoTCl8=
-----END CERTIFICATE-----
