Certificate:
    Data:
        Version: 3 (0x2)
        Serial Number: 12 (0xc)
        Signature Algorithm: md5WithRSAEncryption
        Issuer: C=US, ST=Massachusetts, L=Worcester, O=cs557, O=Nathan Longnecker, CN=nwlCA
        Validity
            Not Before: Dec  6 04:52:07 2014 GMT
            Not After : Dec  6 04:52:07 2015 GMT
        Subject: C=US, ST=Massachusetts, O=cs557, O=Nathan Longnecker, CN=WPI
        Subject Public Key Info:
            Public Key Algorithm: rsaEncryption
            RSA Public Key: (2048 bit)
                Modulus (2048 bit):
                    00:b7:b5:3f:5b:bd:74:2b:01:3e:1c:db:36:4a:1d:
                    9c:65:77:6d:e4:92:bc:5a:e1:da:07:40:81:fe:7d:
                    01:e9:e1:b7:11:d2:67:dc:5d:60:08:c0:03:99:f9:
                    33:7c:ab:ea:45:1b:4e:2f:d0:25:9e:33:56:bc:aa:
                    c5:28:89:ff:af:1a:65:76:be:5f:15:b9:71:22:a9:
                    ad:fd:a0:65:d1:a0:3a:c4:5c:2a:9c:3e:81:f6:9b:
                    56:3f:bc:55:dc:b8:6f:b1:e0:0d:43:f6:9f:3c:2f:
                    9c:ec:00:ae:2a:5c:1f:d3:4a:c8:d3:f3:e6:57:06:
                    e0:34:f4:22:64:84:26:47:a1:24:a9:e5:b7:55:14:
                    61:8d:a2:41:d9:00:30:5c:f2:ec:ac:e8:59:31:b7:
                    5f:5d:56:72:23:8d:a0:34:e2:20:77:d6:f4:75:c6:
                    f9:dd:e1:3a:2b:b0:53:dc:7b:bd:3b:84:f2:a8:3e:
                    3c:db:75:3a:9c:82:f7:80:43:ce:0a:38:cb:4e:02:
                    f8:24:c5:ee:fe:90:1a:34:7e:0c:4e:2a:b5:2f:00:
                    fd:69:0a:de:e9:ea:90:a9:8f:d7:03:f6:3f:c2:8c:
                    a4:b1:b0:f8:ae:05:e5:2d:1c:d5:9e:08:0f:8a:30:
                    ce:f5:76:49:05:30:5d:88:c3:79:3c:6a:b4:1e:27:
                    34:75
                Exponent: 65537 (0x10001)
        X509v3 extensions:
            X509v3 Basic Constraints: 
                CA:FALSE
            Netscape Comment: 
                OpenSSL Generated Certificate
            X509v3 Subject Key Identifier: 
                E8:94:37:8E:B1:D4:1A:AF:43:62:0A:93:F9:BF:97:9C:25:74:A0:CB
            X509v3 Authority Key Identifier: 
                keyid:CD:08:F0:23:C2:EB:4A:1C:50:93:5E:BD:0B:BC:FB:8F:C9:6B:8F:50

    Signature Algorithm: md5WithRSAEncryption
        25:ff:ba:be:25:dc:d8:e9:46:af:75:1f:0f:d3:b8:b5:27:9e:
        47:f7:4d:17:56:ec:5c:78:10:99:73:73:6e:9b:03:ec:ab:aa:
        48:e2:73:46:f2:c6:91:ba:1b:95:e6:48:6b:10:e7:21:6a:2b:
        f4:a0:6a:af:5b:b8:1b:30:41:2d:8a:c5:e9:33:3b:91:a7:36:
        a2:59:ee:cb:5c:21:ce:88:36:75:b8:4a:9d:cb:f1:97:d1:71:
        c7:aa:23:98:f9:ab:de:bf:a5:35:04:29:53:39:84:4f:94:fe:
        62:21:e7:8f:dd:78:2d:a6:ce:aa:33:de:b7:7e:de:61:45:19:
        06:b1:2d:40:3b:16:d9:89:1f:1e:5f:e4:f3:14:1c:8a:1b:52:
        ad:93:b0:f9:4a:7f:12:55:3b:16:3d:9e:77:81:6f:16:e5:54:
        e7:23:9c:51:5d:d5:65:e8:47:35:62:6b:8c:b5:37:ff:98:e0:
        8d:21:29:9f:f8:d9:a8:af:7a:80:a4:6e:b5:2b:f9:cc:db:23:
        9b:5b:ad:9e:14:3a:d5:4e:7e:eb:0d:de:50:9a:c2:1b:83:a2:
        a8:c4:b7:f8:ef:b0:e8:ae:34:a1:27:2f:f4:1b:51:ab:32:01:
        19:81:a6:06:c3:f8:fc:91:fe:41:36:8a:33:fa:20:28:11:3e:
        d1:e7:a3:44
-----BEGIN CERTIFICATE-----
MIIDyjCCArKgAwIBAgIBDDANBgkqhkiG9w0BAQQFADB1MQswCQYDVQQGEwJVUzEW
MBQGA1UECAwNTWFzc2FjaHVzZXR0czESMBAGA1UEBwwJV29yY2VzdGVyMQ4wDAYD
VQQKDAVjczU1NzEaMBgGA1UECgwRTmF0aGFuIExvbmduZWNrZXIxDjAMBgNVBAMM
BW53bENBMB4XDTE0MTIwNjA0NTIwN1oXDTE1MTIwNjA0NTIwN1owXzELMAkGA1UE
BhMCVVMxFjAUBgNVBAgMDU1hc3NhY2h1c2V0dHMxDjAMBgNVBAoMBWNzNTU3MRow
GAYDVQQKDBFOYXRoYW4gTG9uZ25lY2tlcjEMMAoGA1UEAwwDV1BJMIIBIjANBgkq
hkiG9w0BAQEFAAOCAQ8AMIIBCgKCAQEAt7U/W710KwE+HNs2Sh2cZXdt5JK8WuHa
B0CB/n0B6eG3EdJn3F1gCMADmfkzfKvqRRtOL9AlnjNWvKrFKIn/rxpldr5fFblx
Iqmt/aBl0aA6xFwqnD6B9ptWP7xV3LhvseANQ/afPC+c7ACuKlwf00rI0/PmVwbg
NPQiZIQmR6EkqeW3VRRhjaJB2QAwXPLsrOhZMbdfXVZyI42gNOIgd9b0dcb53eE6
K7BT3Hu9O4TyqD4823U6nIL3gEPOCjjLTgL4JMXu/pAaNH4MTiq1LwD9aQre6eqQ
qY/XA/Y/woyksbD4rgXlLRzVnggPijDO9XZJBTBdiMN5PGq0Hic0dQIDAQABo3sw
eTAJBgNVHRMEAjAAMCwGCWCGSAGG+EIBDQQfFh1PcGVuU1NMIEdlbmVyYXRlZCBD
ZXJ0aWZpY2F0ZTAdBgNVHQ4EFgQU6JQ3jrHUGq9DYgqT+b+XnCV0oMswHwYDVR0j
BBgwFoAUzQjwI8LrShxQk169C7z7j8lrj1AwDQYJKoZIhvcNAQEEBQADggEBACX/
ur4l3NjpRq91Hw/TuLUnnkf3TRdW7Fx4EJlzc26bA+yrqkjic0byxpG6G5XmSGsQ
5yFqK/Sgaq9buBswQS2KxekzO5GnNqJZ7stcIc6INnW4Sp3L8ZfRcceqI5j5q96/
pTUEKVM5hE+U/mIh54/deC2mzqoz3rd+3mFFGQaxLUA7FtmJHx5f5PMUHIobUq2T
sPlKfxJVOxY9nneBbxblVOcjnFFd1WXoRzVia4y1N/+Y4I0hKZ/42aiveoCkbrUr
+czbI5tbrZ4UOtVOfusN3lCawhuDoqjEt/jvsOiuNKEnL/QbUasyARmBpgbD+PyR
/kE2ijP6ICgRPtHno0Q=
-----END CERTIFICATE-----
