Certificate:
    Data:
        Version: 3 (0x2)
        Serial Number: 13 (0xd)
        Signature Algorithm: md5WithRSAEncryption
        Issuer: C=US, ST=Massachusetts, L=Worcester, O=cs557, O=Nathan Longnecker, CN=nwlCA
        Validity
            Not Before: Dec  6 04:52:30 2014 GMT
            Not After : Dec  6 04:52:30 2015 GMT
        Subject: C=US, ST=Massachusetts, O=cs557, O=Nathan Longnecker, CN=WPIACM
        Subject Public Key Info:
            Public Key Algorithm: rsaEncryption
            RSA Public Key: (2048 bit)
                Modulus (2048 bit):
                    00:d4:e1:98:e0:10:d2:b4:a3:9a:f9:f2:1f:c8:ec:
                    50:3d:88:57:84:80:b6:d7:fe:b3:81:11:42:37:37:
                    d9:1b:a8:08:84:d7:f0:1c:c1:3b:68:ce:c1:c2:bb:
                    e7:f0:b5:19:65:39:39:19:0f:57:2c:8f:4e:1c:6c:
                    d8:ac:de:ae:f2:60:e5:15:d6:83:77:a3:a1:27:bc:
                    27:ea:52:9d:6f:24:ec:a6:b1:85:82:3a:92:e5:bd:
                    49:2c:e1:d1:3b:02:01:4c:2a:31:05:b2:c8:3c:75:
                    eb:a0:0c:99:29:9a:60:f9:46:e2:dd:c5:2c:29:a2:
                    5c:26:69:68:1d:39:8c:7b:f8:91:c8:0d:3a:58:c6:
                    32:73:65:2b:95:d8:0c:0c:a8:68:96:75:2a:80:b5:
                    97:35:4b:e9:3d:2d:fd:3e:b5:99:52:4b:b7:d4:58:
                    c7:db:26:33:e2:df:74:e8:54:ae:5c:52:94:82:d4:
                    a9:8b:6b:aa:03:15:02:a6:3a:32:9c:13:1f:22:18:
                    31:ea:6a:93:b5:e2:02:fd:07:f7:b0:4f:49:5f:0a:
                    d7:3e:2b:47:33:08:61:04:0f:bf:b2:d2:0a:85:2f:
                    60:02:4c:d8:8b:70:60:81:b6:0c:d5:df:ae:eb:84:
                    ed:d4:83:73:47:ab:79:e6:17:43:13:88:32:6b:77:
                    44:b7
                Exponent: 65537 (0x10001)
        X509v3 extensions:
            X509v3 Basic Constraints: 
                CA:FALSE
            Netscape Comment: 
                OpenSSL Generated Certificate
            X509v3 Subject Key Identifier: 
                67:8D:DD:D8:06:DC:DB:39:B7:C4:1D:9C:4B:BB:D0:40:37:72:AC:8D
            X509v3 Authority Key Identifier: 
                keyid:CD:08:F0:23:C2:EB:4A:1C:50:93:5E:BD:0B:BC:FB:8F:C9:6B:8F:50

    Signature Algorithm: md5WithRSAEncryption
        8c:f7:b7:b9:1a:94:db:a4:0b:dc:66:1f:4b:01:47:58:e5:e7:
        fc:6a:b4:6b:4b:fd:43:88:cb:b9:0c:f4:ae:27:10:c5:5a:13:
        0e:63:81:ae:cc:f0:48:fa:53:44:d5:06:b1:7b:3a:f1:24:e6:
        ce:33:fa:53:74:ff:57:a0:04:97:8f:85:bd:4e:84:3c:dd:ea:
        6f:06:53:d3:95:e7:03:c0:0e:b9:11:6b:b1:c4:ae:4b:fd:5a:
        60:95:b1:cd:20:a8:d9:60:cf:d5:97:2f:34:d7:74:91:94:e7:
        fc:b5:0a:75:67:89:ec:1d:d9:16:85:47:01:1c:a4:ab:31:78:
        68:84:01:cc:70:a9:dd:dc:8b:24:0f:7d:09:3d:09:3c:4c:4b:
        51:54:f6:4d:a6:6e:4d:98:b2:ac:7c:4a:39:91:aa:93:c9:39:
        59:c8:cc:c7:b7:6c:c4:28:51:7f:dc:4f:c7:ff:e0:00:bf:b4:
        fc:22:99:a3:ca:19:a3:a4:c2:65:31:40:03:3b:88:3e:9e:04:
        d4:04:64:b4:11:46:80:34:78:d3:1f:4b:db:5a:45:db:e3:38:
        6f:c5:69:3d:97:c2:de:13:26:4a:8b:ef:c8:eb:bf:86:b7:af:
        b4:8d:20:20:7e:d3:13:08:ae:7c:5f:4d:3a:2e:c1:f4:5a:fc:
        e6:82:99:cd
-----BEGIN CERTIFICATE-----
MIIDzTCCArWgAwIBAgIBDTANBgkqhkiG9w0BAQQFADB1MQswCQYDVQQGEwJVUzEW
MBQGA1UECAwNTWFzc2FjaHVzZXR0czESMBAGA1UEBwwJV29yY2VzdGVyMQ4wDAYD
VQQKDAVjczU1NzEaMBgGA1UECgwRTmF0aGFuIExvbmduZWNrZXIxDjAMBgNVBAMM
BW53bENBMB4XDTE0MTIwNjA0NTIzMFoXDTE1MTIwNjA0NTIzMFowYjELMAkGA1UE
BhMCVVMxFjAUBgNVBAgMDU1hc3NhY2h1c2V0dHMxDjAMBgNVBAoMBWNzNTU3MRow
GAYDVQQKDBFOYXRoYW4gTG9uZ25lY2tlcjEPMA0GA1UEAwwGV1BJQUNNMIIBIjAN
BgkqhkiG9w0BAQEFAAOCAQ8AMIIBCgKCAQEA1OGY4BDStKOa+fIfyOxQPYhXhIC2
1/6zgRFCNzfZG6gIhNfwHME7aM7Bwrvn8LUZZTk5GQ9XLI9OHGzYrN6u8mDlFdaD
d6OhJ7wn6lKdbyTsprGFgjqS5b1JLOHROwIBTCoxBbLIPHXroAyZKZpg+Ubi3cUs
KaJcJmloHTmMe/iRyA06WMYyc2UrldgMDKholnUqgLWXNUvpPS39PrWZUku31FjH
2yYz4t906FSuXFKUgtSpi2uqAxUCpjoynBMfIhgx6mqTteIC/Qf3sE9JXwrXPitH
MwhhBA+/stIKhS9gAkzYi3BggbYM1d+u64Tt1INzR6t55hdDE4gya3dEtwIDAQAB
o3sweTAJBgNVHRMEAjAAMCwGCWCGSAGG+EIBDQQfFh1PcGVuU1NMIEdlbmVyYXRl
ZCBDZXJ0aWZpY2F0ZTAdBgNVHQ4EFgQUZ43d2Abc2zm3xB2cS7vQQDdyrI0wHwYD
VR0jBBgwFoAUzQjwI8LrShxQk169C7z7j8lrj1AwDQYJKoZIhvcNAQEEBQADggEB
AIz3t7kalNukC9xmH0sBR1jl5/xqtGtL/UOIy7kM9K4nEMVaEw5jga7M8Ej6U0TV
BrF7OvEk5s4z+lN0/1egBJePhb1OhDzd6m8GU9OV5wPADrkRa7HErkv9WmCVsc0g
qNlgz9WXLzTXdJGU5/y1CnVniewd2RaFRwEcpKsxeGiEAcxwqd3ciyQPfQk9CTxM
S1FU9k2mbk2Ysqx8SjmRqpPJOVnIzMe3bMQoUX/cT8f/4AC/tPwimaPKGaOkwmUx
QAM7iD6eBNQEZLQRRoA0eNMfS9taRdvjOG/FaT2Xwt4TJkqL78jrv4a3r7SNICB+
0xMIrnxfTTouwfRa/OaCmc0=
-----END CERTIFICATE-----
