Certificate:
    Data:
        Version: 3 (0x2)
        Serial Number: 14 (0xe)
        Signature Algorithm: md5WithRSAEncryption
        Issuer: C=US, ST=Massachusetts, L=Worcester, O=cs557, O=Nathan Longnecker, CN=nwlCA
        Validity
            Not Before: Dec  6 04:52:58 2014 GMT
            Not After : Dec  6 04:52:58 2015 GMT
        Subject: C=US, ST=Massachusetts, O=cs557, O=Nathan Longnecker, CN=WPIUPE
        Subject Public Key Info:
            Public Key Algorithm: rsaEncryption
            RSA Public Key: (2048 bit)
                Modulus (2048 bit):
                    00:eb:a9:93:16:07:6b:e4:06:ce:2c:2d:cd:6f:c3:
                    d4:9d:03:1c:de:98:6e:67:dd:f9:78:99:b5:fd:72:
                    89:0f:8f:09:9c:16:7d:9b:e2:21:f0:89:19:64:d5:
                    eb:66:b2:d4:95:da:c4:b5:f0:70:73:7f:f7:2e:61:
                    93:0b:e8:77:b7:67:89:7c:b1:7f:4c:1c:c6:42:c3:
                    e0:cc:71:f2:3a:39:ec:12:a6:c4:7b:8c:81:23:6a:
                    a3:a9:e9:ba:c1:ea:4a:93:7f:5c:27:0f:c1:50:6d:
                    41:cf:95:1d:8d:78:a9:fe:7d:ac:3e:68:c0:1f:fc:
                    af:cc:78:29:e9:97:67:e7:e2:e9:43:4e:3f:af:06:
                    71:c9:e5:4e:dd:8f:68:25:11:55:a6:8d:ca:1b:b6:
                    48:fd:10:46:f5:96:36:76:71:8c:ae:0f:a9:a7:83:
                    f4:82:b6:10:2a:b6:a8:c0:55:07:93:53:4c:44:50:
                    44:89:0e:6d:06:24:16:83:d3:e8:27:9f:13:e5:7a:
                    23:e9:ac:d8:07:ca:10:1e:c8:2f:a4:7f:7e:95:50:
                    9b:a6:b9:19:11:87:01:00:c3:af:4b:be:22:bc:be:
                    74:f2:63:e4:de:24:4d:ea:39:51:f4:74:c3:5e:25:
                    a4:77:b2:08:88:55:f9:0e:93:4c:28:88:85:2c:64:
                    db:0d
                Exponent: 65537 (0x10001)
        X509v3 extensions:
            X509v3 Basic Constraints: 
                CA:FALSE
            Netscape Comment: 
                OpenSSL Generated Certificate
            X509v3 Subject Key Identifier: 
                26:8E:8B:2F:DF:01:91:D4:AB:D0:6F:C7:4B:92:17:B6:2F:E1:D0:0B
            X509v3 Authority Key Identifier: 
                keyid:CD:08:F0:23:C2:EB:4A:1C:50:93:5E:BD:0B:BC:FB:8F:C9:6B:8F:50

    Signature Algorithm: md5WithRSAEncryption
        84:9f:99:39:ad:02:64:ce:f8:24:0d:28:55:77:cd:89:ae:b5:
        4d:0c:01:cb:1c:a1:fc:5c:ad:15:f7:58:96:d1:c9:c4:88:a8:
        df:ae:d5:56:21:1b:89:2d:0d:43:1b:5a:00:09:f8:16:58:74:
        a7:0e:78:8a:b8:0a:a5:59:4d:61:f2:36:33:84:e7:0d:eb:ca:
        19:a0:db:97:5f:89:43:47:9a:43:86:9e:e8:8c:a6:b1:78:b9:
        ec:25:0f:11:9d:ef:c0:e6:ac:06:c9:e5:1e:05:20:b2:9f:8c:
        31:a6:f3:b3:d7:5f:ea:c2:7d:59:7b:44:db:ec:e2:09:cb:c3:
        ec:80:87:00:2f:b2:d1:75:7d:08:0f:99:b6:0d:86:9d:b8:1f:
        dd:10:d1:e6:e7:1e:a0:4e:b5:84:93:ca:36:d3:8a:03:ac:9c:
        81:22:8f:82:21:68:95:23:8d:28:25:cc:07:ac:ab:2b:69:1d:
        8b:1b:d8:5c:82:53:c3:34:af:aa:9a:c6:7b:b4:3d:6d:9a:1b:
        2c:8a:03:46:9a:e3:34:90:c2:6b:2a:e4:93:7c:54:7a:2e:f4:
        99:3a:a2:84:cb:07:d2:33:77:ce:8a:9c:74:7c:59:3d:a2:e1:
        87:33:78:b5:ad:74:d5:a5:32:d7:57:1b:f5:e4:94:09:4b:f7:
        af:f4:04:69
-----BEGIN CERTIFICATE-----
MIIDzTCCArWgAwIBAgIBDjANBgkqhkiG9w0BAQQFADB1MQswCQYDVQQGEwJVUzEW
MBQGA1UECAwNTWFzc2FjaHVzZXR0czESMBAGA1UEBwwJV29yY2VzdGVyMQ4wDAYD
VQQKDAVjczU1NzEaMBgGA1UECgwRTmF0aGFuIExvbmduZWNrZXIxDjAMBgNVBAMM
BW53bENBMB4XDTE0MTIwNjA0NTI1OFoXDTE1MTIwNjA0NTI1OFowYjELMAkGA1UE
BhMCVVMxFjAUBgNVBAgMDU1hc3NhY2h1c2V0dHMxDjAMBgNVBAoMBWNzNTU3MRow
GAYDVQQKDBFOYXRoYW4gTG9uZ25lY2tlcjEPMA0GA1UEAwwGV1BJVVBFMIIBIjAN
BgkqhkiG9w0BAQEFAAOCAQ8AMIIBCgKCAQEA66mTFgdr5AbOLC3Nb8PUnQMc3phu
Z935eJm1/XKJD48JnBZ9m+Ih8IkZZNXrZrLUldrEtfBwc3/3LmGTC+h3t2eJfLF/
TBzGQsPgzHHyOjnsEqbEe4yBI2qjqem6wepKk39cJw/BUG1Bz5UdjXip/n2sPmjA
H/yvzHgp6Zdn5+LpQ04/rwZxyeVO3Y9oJRFVpo3KG7ZI/RBG9ZY2dnGMrg+pp4P0
grYQKraowFUHk1NMRFBEiQ5tBiQWg9PoJ58T5Xoj6azYB8oQHsgvpH9+lVCbprkZ
EYcBAMOvS74ivL508mPk3iRN6jlR9HTDXiWkd7IIiFX5DpNMKIiFLGTbDQIDAQAB
o3sweTAJBgNVHRMEAjAAMCwGCWCGSAGG+EIBDQQfFh1PcGVuU1NMIEdlbmVyYXRl
ZCBDZXJ0aWZpY2F0ZTAdBgNVHQ4EFgQUJo6LL98BkdSr0G/HS5IXti/h0AswHwYD
VR0jBBgwFoAUzQjwI8LrShxQk169C7z7j8lrj1AwDQYJKoZIhvcNAQEEBQADggEB
AISfmTmtAmTO+CQNKFV3zYmutU0MAcscofxcrRX3WJbRycSIqN+u1VYhG4ktDUMb
WgAJ+BZYdKcOeIq4CqVZTWHyNjOE5w3ryhmg25dfiUNHmkOGnuiMprF4uewlDxGd
78DmrAbJ5R4FILKfjDGm87PXX+rCfVl7RNvs4gnLw+yAhwAvstF1fQgPmbYNhp24
H90Q0ebnHqBOtYSTyjbTigOsnIEij4IhaJUjjSglzAesqytpHYsb2FyCU8M0r6qa
xnu0PW2aGyyKA0aa4zSQwmsq5JN8VHou9Jk6ooTLB9Izd86KnHR8WT2i4YczeLWt
dNWlMtdXG/XklAlL96/0BGk=
-----END CERTIFICATE-----
